target datalayout = "e-m:e-p270:32:32-p271:32:32-p272:64:64-i64:64-i128:128-f80:128-n8:16:32:64-S128"
target triple = "x86_64-pc-linux-gnu"

%"struct.kitty::static_truth_table" = type { %"struct.std::array" }
%"struct.std::array" = type { [32 x i64] }
%"struct.std::array.15" = type { [11 x i32] }
%"struct.acd::acdXX_params" = type <{ i32, i32, i32, i8, [3 x i8] }>
%"class.acd::acdXX_impl" = type { i32, i32, i32, i32, %"struct.kitty::static_truth_table", %"struct.kitty::static_truth_table", [2 x i64], [6 x i32], i32, %"struct.acd::acdXX_params", %"struct.std::array.15" }

; Function Attrs: inlinehint mustprogress nounwind uwtable
define linkonce_odr void @_ZSt9__fill_a1IPmmEN9__gnu_cxx11__enable_ifIXsr11__is_scalarIT0_EE7__valueEvE6__typeET_S6_RKS3_(ptr noundef %0, ptr noundef %1, ptr noundef nonnull align 8 dereferenceable(8) %2) #6 comdat {
  %4 = alloca ptr, align 8
  %5 = alloca ptr, align 8
  %6 = alloca ptr, align 8
  %7 = alloca i64, align 8
  store ptr %0, ptr %4, align 8, !tbaa !3
  store ptr %1, ptr %5, align 8, !tbaa !3
  store ptr %2, ptr %6, align 8, !tbaa !3
  call void @llvm.lifetime.start.p0(i64 8, ptr %7) #3
  %8 = load ptr, ptr %6, align 8, !tbaa !3
  %9 = load i64, ptr %8, align 8, !tbaa !91
  store i64 %9, ptr %7, align 8, !tbaa !91
  br label %10

10:                                               ; preds = %17, %3
  %11 = load ptr, ptr %4, align 8, !tbaa !3
  %12 = load ptr, ptr %5, align 8, !tbaa !3
  %13 = icmp ne ptr %11, %12
  br i1 %13, label %14, label %20

14:                                               ; preds = %10
  %15 = load i64, ptr %7, align 8, !tbaa !91
  %16 = load ptr, ptr %4, align 8, !tbaa !3
  store i64 %15, ptr %16, align 8, !tbaa !91
  br label %17

17:                                               ; preds = %14
  %18 = load ptr, ptr %4, align 8, !tbaa !3
  %19 = getelementptr inbounds nuw i64, ptr %18, i32 1
  store ptr %19, ptr %4, align 8, !tbaa !3
  br label %10, !llvm.loop !108

20:                                               ; preds = %10
  call void @llvm.lifetime.end.p0(i64 8, ptr %7) #3
  ret void
}

; Function Attrs: inlinehint mustprogress nounwind uwtable
define linkonce_odr void @_ZSt8__fill_aIPmmEvT_S1_RKT0_(ptr noundef %0, ptr noundef %1, ptr noundef nonnull align 8 dereferenceable(8) %2) #6 comdat {
  %4 = alloca ptr, align 8
  %5 = alloca ptr, align 8
  %6 = alloca ptr, align 8
  store ptr %0, ptr %4, align 8, !tbaa !3
  store ptr %1, ptr %5, align 8, !tbaa !3
  store ptr %2, ptr %6, align 8, !tbaa !3
  %7 = load ptr, ptr %4, align 8, !tbaa !3
  %8 = load ptr, ptr %5, align 8, !tbaa !3
  %9 = load ptr, ptr %6, align 8, !tbaa !3
  call void @_ZSt9__fill_a1IPmmEN9__gnu_cxx11__enable_ifIXsr11__is_scalarIT0_EE7__valueEvE6__typeET_S6_RKS3_(ptr noundef %7, ptr noundef %8, ptr noundef nonnull align 8 dereferenceable(8) %9)
  ret void
}

; Function Attrs: mustprogress nounwind uwtable
define linkonce_odr noundef ptr @_ZNSt14__array_traitsImLm32EE6_S_ptrERA32_Km(ptr noundef nonnull align 8 dereferenceable(256) %0) #4 comdat align 2 {
  %2 = alloca ptr, align 8
  store ptr %0, ptr %2, align 8, !tbaa !3
  %3 = load ptr, ptr %2, align 8, !tbaa !3
  %4 = getelementptr inbounds [32 x i64], ptr %3, i64 0, i64 0
  ret ptr %4
}

; Function Attrs: inlinehint mustprogress nounwind uwtable
define linkonce_odr noundef ptr @_ZSt10__fill_n_aIPmmmET_S1_T0_RKT1_St26random_access_iterator_tag(ptr noundef %0, i64 noundef %1, ptr noundef nonnull align 8 dereferenceable(8) %2) #6 comdat {
  %4 = alloca ptr, align 8
  %5 = alloca ptr, align 8
  %6 = alloca i64, align 8
  %7 = alloca ptr, align 8
  store ptr %0, ptr %5, align 8, !tbaa !3
  store i64 %1, ptr %6, align 8, !tbaa !91
  store ptr %2, ptr %7, align 8, !tbaa !3
  %8 = load i64, ptr %6, align 8, !tbaa !91
  %9 = icmp ule i64 %8, 0
  br i1 %9, label %10, label %12

10:                                               ; preds = %3
  %11 = load ptr, ptr %5, align 8, !tbaa !3
  store ptr %11, ptr %4, align 8
  br label %21

12:                                               ; preds = %3
  %13 = load ptr, ptr %5, align 8, !tbaa !3
  %14 = load ptr, ptr %5, align 8, !tbaa !3
  %15 = load i64, ptr %6, align 8, !tbaa !91
  %16 = getelementptr inbounds nuw i64, ptr %14, i64 %15
  %17 = load ptr, ptr %7, align 8, !tbaa !3
  call void @_ZSt8__fill_aIPmmEvT_S1_RKT0_(ptr noundef %13, ptr noundef %16, ptr noundef nonnull align 8 dereferenceable(8) %17)
  %18 = load ptr, ptr %5, align 8, !tbaa !3
  %19 = load i64, ptr %6, align 8, !tbaa !91
  %20 = getelementptr inbounds nuw i64, ptr %18, i64 %19
  store ptr %20, ptr %4, align 8
  br label %21

21:                                               ; preds = %12, %10
  %22 = load ptr, ptr %4, align 8
  ret ptr %22
}

; Function Attrs: inlinehint mustprogress nounwind uwtable
define linkonce_odr void @_ZSt19__iterator_categoryIPmENSt15iterator_traitsIT_E17iterator_categoryERKS2_(ptr noundef nonnull align 8 dereferenceable(8) %0) #6 comdat {
  %2 = alloca ptr, align 8
  store ptr %0, ptr %2, align 8, !tbaa !106
  ret void
}

; Function Attrs: inlinehint mustprogress nounwind uwtable
define linkonce_odr noundef i64 @_ZSt17__size_to_integerm(i64 noundef %0) #6 comdat {
  %2 = alloca i64, align 8
  store i64 %0, ptr %2, align 8, !tbaa !91
  %3 = load i64, ptr %2, align 8, !tbaa !91
  ret i64 %3
}

; Function Attrs: mustprogress nounwind willreturn memory(none) uwtable
define linkonce_odr noundef ptr @_ZNSt5arrayImLm32EE4dataEv(ptr noundef nonnull align 8 dereferenceable(256) %0) #8 comdat align 2 {
  %2 = alloca ptr, align 8
  store ptr %0, ptr %2, align 8, !tbaa !104
  %3 = load ptr, ptr %2, align 8
  %4 = getelementptr inbounds nuw %"struct.std::array", ptr %3, i32 0, i32 0
  %5 = call noundef ptr @_ZNSt14__array_traitsImLm32EE6_S_ptrERA32_Km(ptr noundef nonnull align 8 dereferenceable(256) %4) #3
  ret ptr %5
}

; Function Attrs: mustprogress nounwind uwtable
define linkonce_odr noundef ptr @_ZNSt14__array_traitsIjLm11EE6_S_ptrERA11_Kj(ptr noundef nonnull align 4 dereferenceable(44) %0) #4 comdat align 2 {
  %2 = alloca ptr, align 8
  store ptr %0, ptr %2, align 8, !tbaa !10
  %3 = load ptr, ptr %2, align 8, !tbaa !10
  %4 = getelementptr inbounds [11 x i32], ptr %3, i64 0, i64 0
  ret ptr %4
}

; Function Attrs: inlinehint mustprogress nounwind uwtable
define linkonce_odr noundef ptr @_ZSt6fill_nIPmmmET_S1_T0_RKT1_(ptr noundef %0, i64 noundef %1, ptr noundef nonnull align 8 dereferenceable(8) %2) #6 comdat {
  %4 = alloca ptr, align 8
  %5 = alloca i64, align 8
  %6 = alloca ptr, align 8
  store ptr %0, ptr %4, align 8, !tbaa !3
  store i64 %1, ptr %5, align 8, !tbaa !91
  store ptr %2, ptr %6, align 8, !tbaa !3
  %7 = load ptr, ptr %4, align 8, !tbaa !3
  %8 = load i64, ptr %5, align 8, !tbaa !91
  %9 = call noundef i64 @_ZSt17__size_to_integerm(i64 noundef %8)
  %10 = load ptr, ptr %6, align 8, !tbaa !3
  call void @_ZSt19__iterator_categoryIPmENSt15iterator_traitsIT_E17iterator_categoryERKS2_(ptr noundef nonnull align 8 dereferenceable(8) %4)
  %11 = call noundef ptr @_ZSt10__fill_n_aIPmmmET_S1_T0_RKT1_St26random_access_iterator_tag(ptr noundef %7, i64 noundef %9, ptr noundef nonnull align 8 dereferenceable(8) %10)
  ret ptr %11
}

; Function Attrs: mustprogress nounwind willreturn memory(none) uwtable
define linkonce_odr noundef i64 @_ZNKSt5arrayImLm32EE4sizeEv(ptr noundef nonnull align 8 dereferenceable(256) %0) #8 comdat align 2 {
  %2 = alloca ptr, align 8
  store ptr %0, ptr %2, align 8, !tbaa !104
  ret i64 32
}

; Function Attrs: mustprogress nounwind willreturn memory(none) uwtable
define linkonce_odr noundef ptr @_ZNSt5arrayImLm32EE5beginEv(ptr noundef nonnull align 8 dereferenceable(256) %0) #8 comdat align 2 {
  %2 = alloca ptr, align 8
  store ptr %0, ptr %2, align 8, !tbaa !104
  %3 = load ptr, ptr %2, align 8
  %4 = call noundef ptr @_ZNSt5arrayImLm32EE4dataEv(ptr noundef nonnull align 8 dereferenceable(256) %3) #15
  ret ptr %4
}

; Function Attrs: mustprogress nounwind willreturn memory(none) uwtable
define linkonce_odr noundef ptr @_ZNSt5arrayIjLm11EE4dataEv(ptr noundef nonnull align 4 dereferenceable(44) %0) #8 comdat align 2 {
  %2 = alloca ptr, align 8
  store ptr %0, ptr %2, align 8, !tbaa !102
  %3 = load ptr, ptr %2, align 8
  %4 = getelementptr inbounds nuw %"struct.std::array.15", ptr %3, i32 0, i32 0
  %5 = call noundef ptr @_ZNSt14__array_traitsIjLm11EE6_S_ptrERA11_Kj(ptr noundef nonnull align 4 dereferenceable(44) %4) #3
  ret ptr %5
}

; Function Attrs: mustprogress nounwind uwtable
define linkonce_odr void @_ZNSt5arrayImLm32EE4fillERKm(ptr noundef nonnull align 8 dereferenceable(256) %0, ptr noundef nonnull align 8 dereferenceable(8) %1) #4 comdat align 2 {
  %3 = alloca ptr, align 8
  %4 = alloca ptr, align 8
  store ptr %0, ptr %3, align 8, !tbaa !104
  store ptr %1, ptr %4, align 8, !tbaa !3
  %5 = load ptr, ptr %3, align 8
  %6 = call noundef ptr @_ZNSt5arrayImLm32EE5beginEv(ptr noundef nonnull align 8 dereferenceable(256) %5) #15
  %7 = call noundef i64 @_ZNKSt5arrayImLm32EE4sizeEv(ptr noundef nonnull align 8 dereferenceable(256) %5) #15
  %8 = load ptr, ptr %4, align 8, !tbaa !3
  %9 = call noundef ptr @_ZSt6fill_nIPmmmET_S1_T0_RKT1_(ptr noundef %6, i64 noundef %7, ptr noundef nonnull align 8 dereferenceable(8) %8)
  ret void
}

; Function Attrs: mustprogress nounwind uwtable
define linkonce_odr void @_ZSt4iotaIPjiEvT_S1_T0_(ptr noundef %0, ptr noundef %1, i32 noundef %2) #4 comdat {
  %4 = alloca ptr, align 8
  %5 = alloca ptr, align 8
  %6 = alloca i32, align 4
  store ptr %0, ptr %4, align 8, !tbaa !10
  store ptr %1, ptr %5, align 8, !tbaa !10
  store i32 %2, ptr %6, align 4, !tbaa !8
  br label %7

7:                                                ; preds = %16, %3
  %8 = load ptr, ptr %4, align 8, !tbaa !10
  %9 = load ptr, ptr %5, align 8, !tbaa !10
  %10 = icmp ne ptr %8, %9
  br i1 %10, label %11, label %19

11:                                               ; preds = %7
  %12 = load i32, ptr %6, align 4, !tbaa !8
  %13 = load ptr, ptr %4, align 8, !tbaa !10
  store i32 %12, ptr %13, align 4, !tbaa !8
  %14 = load i32, ptr %6, align 4, !tbaa !8
  %15 = add nsw i32 %14, 1
  store i32 %15, ptr %6, align 4, !tbaa !8
  br label %16

16:                                               ; preds = %11
  %17 = load ptr, ptr %4, align 8, !tbaa !10
  %18 = getelementptr inbounds nuw i32, ptr %17, i32 1
  store ptr %18, ptr %4, align 8, !tbaa !10
  br label %7, !llvm.loop !101

19:                                               ; preds = %7
  ret void
}

; Function Attrs: mustprogress nounwind willreturn memory(none) uwtable
define linkonce_odr noundef ptr @_ZNSt5arrayIjLm11EE3endEv(ptr noundef nonnull align 4 dereferenceable(44) %0) #8 comdat align 2 {
  %2 = alloca ptr, align 8
  store ptr %0, ptr %2, align 8, !tbaa !102
  %3 = load ptr, ptr %2, align 8
  %4 = call noundef ptr @_ZNSt5arrayIjLm11EE4dataEv(ptr noundef nonnull align 4 dereferenceable(44) %3) #15
  %5 = getelementptr inbounds nuw i32, ptr %4, i64 11
  ret ptr %5
}

; Function Attrs: mustprogress nounwind willreturn memory(none) uwtable
define linkonce_odr noundef ptr @_ZNSt5arrayIjLm11EE5beginEv(ptr noundef nonnull align 4 dereferenceable(44) %0) #8 comdat align 2 {
  %2 = alloca ptr, align 8
  store ptr %0, ptr %2, align 8, !tbaa !102
  %3 = load ptr, ptr %2, align 8
  %4 = call noundef ptr @_ZNSt5arrayIjLm11EE4dataEv(ptr noundef nonnull align 4 dereferenceable(44) %3) #15
  ret ptr %4
}

; Function Attrs: mustprogress nounwind uwtable
define linkonce_odr void @_ZN5kitty18static_truth_tableILj11ELb0EEC2Ev(ptr noundef nonnull align 8 dereferenceable(256) %0) unnamed_addr #4 comdat align 2 {
  %2 = alloca ptr, align 8
  %3 = alloca i64, align 8
  store ptr %0, ptr %2, align 8, !tbaa !90
  %4 = load ptr, ptr %2, align 8
  %5 = getelementptr inbounds nuw %"struct.kitty::static_truth_table", ptr %4, i32 0, i32 0
  call void @llvm.lifetime.start.p0(i64 8, ptr %3) #3
  store i64 0, ptr %3, align 8, !tbaa !91
  call void @_ZNSt5arrayImLm32EE4fillERKm(ptr noundef nonnull align 8 dereferenceable(256) %5, ptr noundef nonnull align 8 dereferenceable(8) %3)
  call void @llvm.lifetime.end.p0(i64 8, ptr %3) #3
  ret void
}

; Function Attrs: mustprogress nounwind uwtable
define linkonce_odr void @_ZN3acd10acdXX_impl17get_decompositionEPh(ptr noundef nonnull align 8 dereferenceable(632) %0, ptr noundef %1) #4 comdat align 2 {
  %3 = alloca ptr, align 8
  %4 = alloca ptr, align 8
  store ptr %0, ptr %3, align 8, !tbaa !71
  store ptr %1, ptr %4, align 8, !tbaa !62
  %5 = load ptr, ptr %3, align 8
  %6 = getelementptr inbounds nuw %"class.acd::acdXX_impl", ptr %5, i32 0, i32 2
  %7 = load i32, ptr %6, align 8, !tbaa !76
  %8 = icmp eq i32 %7, -1
  br i1 %8, label %9, label %10

9:                                                ; preds = %2
  br label %12

10:                                               ; preds = %2
  %11 = load ptr, ptr %4, align 8, !tbaa !62
  call void @_ZN3acd10acdXX_impl21get_decomposition_abcEPh(ptr noundef nonnull align 8 dereferenceable(632) %5, ptr noundef %11)
  br label %12

12:                                               ; preds = %10, %9
  ret void
}

; Function Attrs: mustprogress nounwind uwtable
define linkonce_odr noundef i32 @_ZN3acd10acdXX_impl21compute_decompositionEv(ptr noundef nonnull align 8 dereferenceable(632) %0) #4 comdat align 2 {
  %2 = alloca i32, align 4
  %3 = alloca ptr, align 8
  store ptr %0, ptr %3, align 8, !tbaa !71
  %4 = load ptr, ptr %3, align 8
  %5 = getelementptr inbounds nuw %"class.acd::acdXX_impl", ptr %4, i32 0, i32 0
  %6 = load i32, ptr %5, align 8, !tbaa !73
  %7 = icmp eq i32 %6, -1
  br i1 %7, label %8, label %9

8:                                                ; preds = %1
  store i32 -1, ptr %2, align 4
  br label %18

9:                                                ; preds = %1
  call void @_ZN3acd10acdXX_impl26compute_decomposition_implEb(ptr noundef nonnull align 8 dereferenceable(632) %4, i1 noundef zeroext false)
  %10 = getelementptr inbounds nuw %"class.acd::acdXX_impl", ptr %4, i32 0, i32 9
  %11 = getelementptr inbounds nuw %"struct.acd::acdXX_params", ptr %10, i32 0, i32 3
  %12 = load i8, ptr %11, align 4, !tbaa !84, !range !85, !noundef !86
  %13 = trunc i8 %12 to i1
  br i1 %13, label %14, label %17

14:                                               ; preds = %9
  %15 = call noundef zeroext i1 @_ZN3acd10acdXX_impl11verify_implEv(ptr noundef nonnull align 8 dereferenceable(632) %4)
  br i1 %15, label %17, label %16

16:                                               ; preds = %14
  store i32 1, ptr %2, align 4
  br label %18

17:                                               ; preds = %14, %9
  store i32 0, ptr %2, align 4
  br label %18

18:                                               ; preds = %17, %16, %8
  %19 = load i32, ptr %2, align 4
  ret i32 %19
}

; Function Attrs: mustprogress nounwind uwtable
define linkonce_odr void @_ZN3acd10acdXX_implC2EjRKNS_12acdXX_paramsE(ptr noundef nonnull align 8 dereferenceable(632) %0, i32 noundef %1, ptr noundef nonnull align 4 dereferenceable(13) %2) unnamed_addr #4 comdat align 2 {
  %4 = alloca ptr, align 8
  %5 = alloca i32, align 4
  %6 = alloca ptr, align 8
  store ptr %0, ptr %4, align 8, !tbaa !71
  store i32 %1, ptr %5, align 4, !tbaa !8
  store ptr %2, ptr %6, align 8, !tbaa !67
  %7 = load ptr, ptr %4, align 8
  %8 = getelementptr inbounds nuw %"class.acd::acdXX_impl", ptr %7, i32 0, i32 0
  store i32 -1, ptr %8, align 8, !tbaa !73
  %9 = getelementptr inbounds nuw %"class.acd::acdXX_impl", ptr %7, i32 0, i32 1
  store i32 -1, ptr %9, align 4, !tbaa !75
  %10 = getelementptr inbounds nuw %"class.acd::acdXX_impl", ptr %7, i32 0, i32 2
  store i32 -1, ptr %10, align 8, !tbaa !76
  %11 = getelementptr inbounds nuw %"class.acd::acdXX_impl", ptr %7, i32 0, i32 3
  store i32 0, ptr %11, align 4, !tbaa !77
  %12 = getelementptr inbounds nuw %"class.acd::acdXX_impl", ptr %7, i32 0, i32 4
  call void @_ZN5kitty18static_truth_tableILj11ELb0EEC2Ev(ptr noundef nonnull align 8 dereferenceable(256) %12)
  %13 = getelementptr inbounds nuw %"class.acd::acdXX_impl", ptr %7, i32 0, i32 5
  call void @_ZN5kitty18static_truth_tableILj11ELb0EEC2Ev(ptr noundef nonnull align 8 dereferenceable(256) %13)
  %14 = getelementptr inbounds nuw %"class.acd::acdXX_impl", ptr %7, i32 0, i32 8
  %15 = load i32, ptr %5, align 4, !tbaa !8
  store i32 %15, ptr %14, align 8, !tbaa !78
  %16 = getelementptr inbounds nuw %"class.acd::acdXX_impl", ptr %7, i32 0, i32 9
  %17 = load ptr, ptr %6, align 8, !tbaa !67
  call void @llvm.memcpy.p0.p0.i64(ptr align 4 %16, ptr align 4 %17, i64 16, i1 false), !tbaa.struct !79
  %18 = getelementptr inbounds nuw %"class.acd::acdXX_impl", ptr %7, i32 0, i32 10
  %19 = call noundef ptr @_ZNSt5arrayIjLm11EE5beginEv(ptr noundef nonnull align 4 dereferenceable(44) %18) #15
  %20 = getelementptr inbounds nuw %"class.acd::acdXX_impl", ptr %7, i32 0, i32 10
  %21 = call noundef ptr @_ZNSt5arrayIjLm11EE3endEv(ptr noundef nonnull align 4 dereferenceable(44) %20) #15
  call void @_ZSt4iotaIPjiEvT_S1_T0_(ptr noundef %19, ptr noundef %21, i32 noundef 0)
  ret void
}

; Function Attrs: inlinehint mustprogress nounwind uwtable
define linkonce_odr void @_ZN3acd12acdXX_paramsC2Ev(ptr noundef nonnull align 4 dereferenceable(13) %0) unnamed_addr #6 comdat align 2 {
  %2 = alloca ptr, align 8
  store ptr %0, ptr %2, align 8, !tbaa !67
  %3 = load ptr, ptr %2, align 8
  %4 = getelementptr inbounds nuw %"struct.acd::acdXX_params", ptr %3, i32 0, i32 0
  store i32 6, ptr %4, align 4, !tbaa !64
  %5 = getelementptr inbounds nuw %"struct.acd::acdXX_params", ptr %3, i32 0, i32 1
  store i32 4, ptr %5, align 4, !tbaa !66
  %6 = getelementptr inbounds nuw %"struct.acd::acdXX_params", ptr %3, i32 0, i32 2
  store i32 0, ptr %6, align 4, !tbaa !69
  %7 = getelementptr inbounds nuw %"struct.acd::acdXX_params", ptr %3, i32 0, i32 3
  store i8 0, ptr %7, align 4, !tbaa !70
  ret void
}

; Function Attrs: mustprogress nounwind uwtable
define i32 @acdXX_decompose(ptr noundef %0, i32 noundef %1, i32 noundef %2, ptr noundef %3) #4 {
  %5 = alloca i32, align 4
  %6 = alloca ptr, align 8
  %7 = alloca i32, align 4
  %8 = alloca i32, align 4
  %9 = alloca ptr, align 8
  %10 = alloca %"struct.acd::acdXX_params", align 4
  %11 = alloca i32, align 4
  %12 = alloca i32, align 4
  %13 = alloca %"class.acd::acdXX_impl", align 8
  store ptr %0, ptr %6, align 8, !tbaa !3
  store i32 %1, ptr %7, align 4, !tbaa !8
  store i32 %2, ptr %8, align 4, !tbaa !8
  store ptr %3, ptr %9, align 8, !tbaa !62
  call void @llvm.lifetime.start.p0(i64 16, ptr %10) #3
  call void @_ZN3acd12acdXX_paramsC2Ev(ptr noundef nonnull align 4 dereferenceable(13) %10) #3
  %14 = load i32, ptr %7, align 4, !tbaa !8
  %15 = getelementptr inbounds nuw %"struct.acd::acdXX_params", ptr %10, i32 0, i32 0
  store i32 %14, ptr %15, align 4, !tbaa !64
  call void @llvm.lifetime.start.p0(i64 4, ptr %11) #3
  store i32 0, ptr %11, align 4, !tbaa !8
  br label %16

16:                                               ; preds = %38, %4
  %17 = load i32, ptr %11, align 4, !tbaa !8
  %18 = load i32, ptr %7, align 4, !tbaa !8
  %19 = sub i32 %18, 2
  %20 = icmp ule i32 %17, %19
  br i1 %20, label %22, label %21

21:                                               ; preds = %16
  store i32 2, ptr %12, align 4
  br label %41

22:                                               ; preds = %16
  %23 = load i32, ptr %11, align 4, !tbaa !8
  %24 = getelementptr inbounds nuw %"struct.acd::acdXX_params", ptr %10, i32 0, i32 1
  store i32 %23, ptr %24, align 4, !tbaa !66
  %25 = load i32, ptr %11, align 4, !tbaa !8
  %26 = getelementptr inbounds nuw %"struct.acd::acdXX_params", ptr %10, i32 0, i32 2
  store i32 %25, ptr %26, align 4, !tbaa !69
  call void @llvm.lifetime.start.p0(i64 632, ptr %13) #3
  %27 = load i32, ptr %8, align 4, !tbaa !8
  call void @_ZN3acd10acdXX_implC2EjRKNS_12acdXX_paramsE(ptr noundef nonnull align 8 dereferenceable(632) %13, i32 noundef %27, ptr noundef nonnull align 4 dereferenceable(13) %10)
  %28 = load ptr, ptr %6, align 8, !tbaa !3
  %29 = call noundef zeroext i1 @_ZN3acd10acdXX_impl3runEPm(ptr noundef nonnull align 8 dereferenceable(632) %13, ptr noundef %28)
  %30 = zext i1 %29 to i32
  %31 = icmp eq i32 %30, 0
  br i1 %31, label %32, label %33

32:                                               ; preds = %22
  store i32 4, ptr %12, align 4
  br label %36

33:                                               ; preds = %22
  %34 = call noundef i32 @_ZN3acd10acdXX_impl21compute_decompositionEv(ptr noundef nonnull align 8 dereferenceable(632) %13)
  %35 = load ptr, ptr %9, align 8, !tbaa !62
  call void @_ZN3acd10acdXX_impl17get_decompositionEPh(ptr noundef nonnull align 8 dereferenceable(632) %13, ptr noundef %35)
  store i32 0, ptr %5, align 4
  store i32 1, ptr %12, align 4
  br label %36

36:                                               ; preds = %33, %32
  call void @llvm.lifetime.end.p0(i64 632, ptr %13) #3
  %37 = load i32, ptr %12, align 4
  switch i32 %37, label %41 [
    i32 4, label %38
  ]

38:                                               ; preds = %36
  %39 = load i32, ptr %11, align 4, !tbaa !8
  %40 = add nsw i32 %39, 1
  store i32 %40, ptr %11, align 4, !tbaa !8
  br label %16, !llvm.loop !89

41:                                               ; preds = %36, %21
  call void @llvm.lifetime.end.p0(i64 4, ptr %11) #3
  %42 = load i32, ptr %12, align 4
  switch i32 %42, label %44 [
    i32 2, label %43
  ]

43:                                               ; preds = %41
  store i32 1, ptr %5, align 4
  store i32 1, ptr %12, align 4
  br label %44

44:                                               ; preds = %43, %41
  call void @llvm.lifetime.end.p0(i64 16, ptr %10) #3
  %45 = load i32, ptr %5, align 4
  ret i32 %45
}