; Function Attrs: mustprogress nounwind uwtable
define range(i32 0, 2) i32 @acdXX_decompose(ptr noundef %0, i32 noundef %1, i32 noundef %2, ptr noundef %3) local_unnamed_addr #3 {
  %5 = alloca %"class.acd::acdXX_impl", align 8
  %6 = getelementptr inbounds nuw i8, ptr %5, i64 4
  %7 = getelementptr inbounds nuw i8, ptr %5, i64 8
  %8 = getelementptr inbounds nuw i8, ptr %5, i64 12
  %9 = getelementptr inbounds nuw i8, ptr %5, i64 568
  %10 = getelementptr inbounds nuw i8, ptr %5, i64 572
  %.sroa.5.0..sroa_idx = getelementptr inbounds nuw i8, ptr %5, i64 576
  %.sroa.7.0..sroa_idx = getelementptr inbounds nuw i8, ptr %5, i64 580
  %.sroa.9.0..sroa_idx = getelementptr inbounds nuw i8, ptr %5, i64 584
  %11 = add i32 %1, -2
  br label %12

12:                                               ; preds = %4, %.critedge
  %.01217 = phi i32 [ 0, %4 ], [ %26, %.critedge ]
  call void @llvm.lifetime.start.p0(i64 632, ptr nonnull %5) #16
  store i32 -1, ptr %5, align 8, !tbaa !76
  store i32 -1, ptr %6, align 4, !tbaa !79
  store i32 -1, ptr %7, align 8, !tbaa !80
  call void @llvm.memset.p0.i64(ptr noundef nonnull align 4 dereferenceable(516) %8, i8 0, i64 516, i1 false)
  store i32 %2, ptr %9, align 8, !tbaa !81
  store i32 %1, ptr %10, align 4, !tbaa !41
  store i32 %.01217, ptr %.sroa.5.0..sroa_idx, align 8, !tbaa !41
  store i32 %.01217, ptr %.sroa.7.0..sroa_idx, align 4, !tbaa !41
  store i8 0, ptr %.sroa.9.0..sroa_idx, align 8, !tbaa !42
  br label %.lr.ph.i.i

.lr.ph.i.i:                                       ; preds = %.lr.ph.i.i, %12
  %.08.i.i = phi i32 [ %13, %.lr.ph.i.i ], [ 0, %12 ]
  %.057.i.idx.i = phi i64 [ %.057.i.add.i, %.lr.ph.i.i ], [ 588, %12 ]
  %.057.i.ptr.i = getelementptr inbounds nuw i8, ptr %5, i64 %.057.i.idx.i
  store i32 %.08.i.i, ptr %.057.i.ptr.i, align 4, !tbaa !41
  %13 = add nuw nsw i32 %.08.i.i, 1
  %.057.i.add.i = add nuw nsw i64 %.057.i.idx.i, 4
  %.not.i.i = icmp eq i64 %.057.i.add.i, 632
  br i1 %.not.i.i, label %_ZN3acd10acdXX_implC2EjRKNS_12acdXX_paramsE.exit, label %.lr.ph.i.i, !llvm.loop !44

_ZN3acd10acdXX_implC2EjRKNS_12acdXX_paramsE.exit: ; preds = %.lr.ph.i.i
  %14 = call noundef zeroext i1 @_ZN3acd10acdXX_impl3runEPm(ptr noundef nonnull align 8 dereferenceable(632) %5, ptr noundef %0)
  br i1 %14, label %15, label %.critedge

15:                                               ; preds = %_ZN3acd10acdXX_implC2EjRKNS_12acdXX_paramsE.exit
  %16 = load i32, ptr %5, align 8, !tbaa !76
  %17 = icmp eq i32 %16, -1
  br i1 %17, label %_ZN3acd10acdXX_impl21compute_decompositionEv.exit, label %18

18:                                               ; preds = %15
  call void @_ZN3acd10acdXX_impl26compute_decomposition_implEb(ptr noundef nonnull align 8 dereferenceable(632) %5, i1 noundef zeroext false)
  %19 = load i8, ptr %.sroa.9.0..sroa_idx, align 8, !tbaa !82, !range !83, !noundef !84
  %20 = trunc nuw i8 %19 to i1
  br i1 %20, label %21, label %_ZN3acd10acdXX_impl21compute_decompositionEv.exit

21:                                               ; preds = %18
  %22 = call noundef zeroext i1 @_ZN3acd10acdXX_impl11verify_implEv(ptr noundef nonnull align 8 dereferenceable(632) %5)
  br label %_ZN3acd10acdXX_impl21compute_decompositionEv.exit

_ZN3acd10acdXX_impl21compute_decompositionEv.exit: ; preds = %21, %18, %15
  %23 = load i32, ptr %7, align 8, !tbaa !80
  %24 = icmp eq i32 %23, -1
  br i1 %24, label %_ZN3acd10acdXX_impl17get_decompositionEPh.exit, label %25

25:                                               ; preds = %_ZN3acd10acdXX_impl21compute_decompositionEv.exit
  call void @_ZN3acd10acdXX_impl21get_decomposition_abcEPh(ptr noundef nonnull align 8 dereferenceable(632) %5, ptr noundef %3)
  br label %_ZN3acd10acdXX_impl17get_decompositionEPh.exit

_ZN3acd10acdXX_impl17get_decompositionEPh.exit:   ; preds = %_ZN3acd10acdXX_impl21compute_decompositionEv.exit, %25
  call void @llvm.lifetime.end.p0(i64 632, ptr nonnull %5) #16
  br label %.loopexit

.critedge:                                        ; preds = %_ZN3acd10acdXX_implC2EjRKNS_12acdXX_paramsE.exit
  call void @llvm.lifetime.end.p0(i64 632, ptr nonnull %5) #16
  %26 = add nuw i32 %.01217, 1
  %exitcond.not = icmp eq i32 %.01217, %11
  br i1 %exitcond.not, label %.loopexit, label %12, !llvm.loop !104

.loopexit:                                        ; preds = %.critedge, %_ZN3acd10acdXX_impl17get_decompositionEPh.exit
  %.not16 = xor i1 %14, true
  %spec.select = zext i1 %.not16 to i32
  ret i32 %spec.select
}